target datalayout = "e-m:e-p270:32:32-p271:32:32-p272:64:64-i64:64-i128:128-f80:128-n8:16:32:64-S128"
target triple = "x86_64-pc-linux-gnu"

%"struct.pxrInternal_v0_24__pxrReserved__::TsTest_SplineData::InnerLoopParams" = type { i8, double, double, double, double, i8, double }

; Function Attrs: mustprogress nounwind uwtable
define noundef zeroext i1 @_ZNK32pxrInternal_v0_24__pxrReserved__17TsTest_SplineData15InnerLoopParams7IsValidEv(ptr noundef nonnull align 8 dereferenceable(56) %0) #2 align 2 {
  %2 = alloca i1, align 1
  %3 = alloca ptr, align 8
  store ptr %0, ptr %3, align 8
  %4 = load ptr, ptr %3, align 8
  %5 = getelementptr inbounds nuw %"struct.pxrInternal_v0_24__pxrReserved__::TsTest_SplineData::InnerLoopParams", ptr %4, i32 0, i32 0
  %6 = load i8, ptr %5, align 8
  %7 = trunc i8 %6 to i1
  br i1 %7, label %9, label %8

8:                                                ; preds = %1
  store i1 true, ptr %2, align 1
  br label %31

9:                                                ; preds = %1
  %10 = getelementptr inbounds nuw %"struct.pxrInternal_v0_24__pxrReserved__::TsTest_SplineData::InnerLoopParams", ptr %4, i32 0, i32 2
  %11 = load double, ptr %10, align 8
  %12 = getelementptr inbounds nuw %"struct.pxrInternal_v0_24__pxrReserved__::TsTest_SplineData::InnerLoopParams", ptr %4, i32 0, i32 1
  %13 = load double, ptr %12, align 8
  %14 = fcmp ole double %11, %13
  br i1 %14, label %15, label %16

15:                                               ; preds = %9
  store i1 false, ptr %2, align 1
  br label %31

16:                                               ; preds = %9
  %17 = getelementptr inbounds nuw %"struct.pxrInternal_v0_24__pxrReserved__::TsTest_SplineData::InnerLoopParams", ptr %4, i32 0, i32 3
  %18 = load double, ptr %17, align 8
  %19 = getelementptr inbounds nuw %"struct.pxrInternal_v0_24__pxrReserved__::TsTest_SplineData::InnerLoopParams", ptr %4, i32 0, i32 1
  %20 = load double, ptr %19, align 8
  %21 = fcmp ogt double %18, %20
  br i1 %21, label %22, label %23

22:                                               ; preds = %16
  store i1 false, ptr %2, align 1
  br label %31

23:                                               ; preds = %16
  %24 = getelementptr inbounds nuw %"struct.pxrInternal_v0_24__pxrReserved__::TsTest_SplineData::InnerLoopParams", ptr %4, i32 0, i32 4
  %25 = load double, ptr %24, align 8
  %26 = getelementptr inbounds nuw %"struct.pxrInternal_v0_24__pxrReserved__::TsTest_SplineData::InnerLoopParams", ptr %4, i32 0, i32 2
  %27 = load double, ptr %26, align 8
  %28 = fcmp olt double %25, %27
  br i1 %28, label %29, label %30

29:                                               ; preds = %23
  store i1 false, ptr %2, align 1
  br label %31

30:                                               ; preds = %23
  store i1 true, ptr %2, align 1
  br label %31

31:                                               ; preds = %30, %29, %22, %15, %8
  %32 = load i1, ptr %2, align 1
  ret i1 %32
}