; Function Attrs: mustprogress nofree norecurse nosync nounwind willreturn memory(argmem: read) uwtable
define noundef zeroext i1 @_ZNK32pxrInternal_v0_24__pxrReserved__17TsTest_SplineData15InnerLoopParams7IsValidEv(ptr nocapture noundef nonnull readonly align 8 dereferenceable(56) %0) local_unnamed_addr #4 align 2 {
  %2 = load i8, ptr %0, align 8
  %3 = trunc i8 %2 to i1
  br i1 %3, label %4, label %17

4:                                                ; preds = %1
  %5 = getelementptr inbounds nuw i8, ptr %0, i64 16
  %6 = load double, ptr %5, align 8
  %7 = getelementptr inbounds nuw i8, ptr %0, i64 8
  %8 = load double, ptr %7, align 8
  %9 = fcmp ole double %6, %8
  %10 = getelementptr inbounds nuw i8, ptr %0, i64 24
  %11 = load double, ptr %10, align 8
  %12 = fcmp ogt double %11, %8
  %or.cond = select i1 %9, i1 true, i1 %12
  br i1 %or.cond, label %17, label %13

13:                                               ; preds = %4
  %14 = getelementptr inbounds nuw i8, ptr %0, i64 32
  %15 = load double, ptr %14, align 8
  %16 = fcmp uge double %15, %6
  br label %17

17:                                               ; preds = %13, %4, %1
  %.0 = phi i1 [ true, %1 ], [ false, %4 ], [ %16, %13 ]
  ret i1 %.0
}